target datalayout = "e-m:e-p270:32:32-p271:32:32-p272:64:64-i64:64-i128:128-f80:128-n8:16:32:64-S128"
target triple = "x86_64-unknown-linux-gnu"

%"class.QuantLib::Period" = type { i32, i32 }

; Function Attrs: mustprogress uwtable
define i64 @_ZN8QuantLibplERKNS_6PeriodES2_(ptr noundef nonnull align 4 dereferenceable(8) %p1, ptr noundef nonnull align 4 dereferenceable(8) %p2) #0 {
entry:
  %retval = alloca %"class.QuantLib::Period", align 4
  %p1.addr = alloca ptr, align 8
  %p2.addr = alloca ptr, align 8
  store ptr %p1, ptr %p1.addr, align 8, !tbaa !3
  store ptr %p2, ptr %p2.addr, align 8, !tbaa !3
  %0 = load ptr, ptr %p1.addr, align 8, !tbaa !3
  call void @llvm.memcpy.p0.p0.i64(ptr align 4 %retval, ptr align 4 %0, i64 8, i1 false), !tbaa.struct !23
  %1 = load ptr, ptr %p2.addr, align 8, !tbaa !3
  %call = call noundef nonnull align 4 dereferenceable(8) ptr @_ZN8QuantLib6PeriodpLERKS0_(ptr noundef nonnull align 4 dereferenceable(8) %retval, ptr noundef nonnull align 4 dereferenceable(8) %1)
  %2 = load i64, ptr %retval, align 4
  ret i64 %2
}