; Function Attrs: mustprogress uwtable
define i64 @_ZN8QuantLibplERKNS_6PeriodES2_(ptr nocapture noundef nonnull readonly align 4 dereferenceable(8) %p1, ptr nocapture noundef nonnull readonly align 4 dereferenceable(8) %p2) local_unnamed_addr #0 {
entry:
  %retval = alloca %"class.QuantLib::Period", align 8
  %0 = load i64, ptr %p1, align 4
  store i64 %0, ptr %retval, align 8
  %call = call noundef nonnull align 4 dereferenceable(8) ptr @_ZN8QuantLib6PeriodpLERKS0_(ptr noundef nonnull align 4 dereferenceable(8) %retval, ptr noundef nonnull align 4 dereferenceable(8) %p2)
  %1 = load i64, ptr %retval, align 8
  ret i64 %1
}